target datalayout = "e-m:e-p270:32:32-p271:32:32-p272:64:64-i64:64-i128:128-f80:128-n8:16:32:64-S128"
target triple = "x86_64-pc-linux-gnu"

%struct.EC_builtin_curve = type { i32, ptr }

@.str = private unnamed_addr constant [35 x i8] c"../openssl/test/ec_internal_test.c\00", align 1
@curves = internal global ptr null, align 8
@.str.57 = private unnamed_addr constant [2 x i8] c"0\00", align 1
@.str.77 = private unnamed_addr constant [37 x i8] c"g1 = EC_GROUP_new_by_curve_name(nid)\00", align 1
@.str.78 = private unnamed_addr constant [31 x i8] c"fp = fopen(\22params.der\22, \22wb\22)\00", align 1
@.str.79 = private unnamed_addr constant [11 x i8] c"params.der\00", align 1
@.str.80 = private unnamed_addr constant [3 x i8] c"wb\00", align 1
@.str.81 = private unnamed_addr constant [30 x i8] c"i2d_ECPKParameters_fp(fp, g1)\00", align 1
@.str.82 = private unnamed_addr constant [11 x i8] c"fclose(fp)\00", align 1
@.str.83 = private unnamed_addr constant [31 x i8] c"fp = fopen(\22params.der\22, \22rb\22)\00", align 1
@.str.84 = private unnamed_addr constant [3 x i8] c"rb\00", align 1
@.str.85 = private unnamed_addr constant [37 x i8] c"g2 = d2i_ECPKParameters_fp(fp, NULL)\00", align 1

; Function Attrs: nounwind uwtable
define internal i32 @ecpkparams_i2d2i_test(i32 noundef %0) #0 {
  %2 = alloca i32, align 4
  %3 = alloca ptr, align 8
  %4 = alloca ptr, align 8
  %5 = alloca ptr, align 8
  %6 = alloca i32, align 4
  %7 = alloca i32, align 4
  store i32 %0, ptr %2, align 4, !tbaa !10
  call void @llvm.lifetime.start.p0(i64 8, ptr %3) #4
  store ptr null, ptr %3, align 8, !tbaa !14
  call void @llvm.lifetime.start.p0(i64 8, ptr %4) #4
  store ptr null, ptr %4, align 8, !tbaa !14
  call void @llvm.lifetime.start.p0(i64 8, ptr %5) #4
  store ptr null, ptr %5, align 8, !tbaa !41
  call void @llvm.lifetime.start.p0(i64 4, ptr %6) #4
  %8 = load ptr, ptr @curves, align 8, !tbaa !8
  %9 = load i32, ptr %2, align 4, !tbaa !10
  %10 = sext i32 %9 to i64
  %11 = getelementptr inbounds %struct.EC_builtin_curve, ptr %8, i64 %10
  %12 = getelementptr inbounds nuw %struct.EC_builtin_curve, ptr %11, i32 0, i32 0
  %13 = load i32, ptr %12, align 8, !tbaa !18
  store i32 %13, ptr %6, align 4, !tbaa !10
  call void @llvm.lifetime.start.p0(i64 4, ptr %7) #4
  store i32 0, ptr %7, align 4, !tbaa !10
  %14 = load i32, ptr %6, align 4, !tbaa !10
  %15 = call ptr @EC_GROUP_new_by_curve_name(i32 noundef %14)
  store ptr %15, ptr %3, align 8, !tbaa !14
  %16 = call i32 @test_ptr(ptr noundef @.str, i32 noundef 455, ptr noundef @.str.77, ptr noundef %15)
  %17 = icmp ne i32 %16, 0
  br i1 %17, label %19, label %18

18:                                               ; preds = %1
  br label %49

19:                                               ; preds = %1
  %20 = call noalias ptr @fopen(ptr noundef @.str.79, ptr noundef @.str.80)
  store ptr %20, ptr %5, align 8, !tbaa !41
  %21 = call i32 @test_ptr(ptr noundef @.str, i32 noundef 459, ptr noundef @.str.78, ptr noundef %20)
  %22 = icmp ne i32 %21, 0
  br i1 %22, label %23, label %31

23:                                               ; preds = %19
  %24 = load ptr, ptr %5, align 8, !tbaa !41
  %25 = load ptr, ptr %3, align 8, !tbaa !14
  %26 = call i32 @ASN1_i2d_fp(ptr noundef @i2d_ECPKParameters, ptr noundef %24, ptr noundef %25)
  %27 = icmp ne i32 %26, 0
  %28 = zext i1 %27 to i32
  %29 = call i32 @test_true(ptr noundef @.str, i32 noundef 460, ptr noundef @.str.81, i32 noundef %28)
  %30 = icmp ne i32 %29, 0
  br i1 %30, label %32, label %31

31:                                               ; preds = %23, %19
  br label %49

32:                                               ; preds = %23
  %33 = load ptr, ptr %5, align 8, !tbaa !41
  %34 = call i32 @fclose(ptr noundef %33)
  %35 = call i32 @test_int_eq(ptr noundef @.str, i32 noundef 464, ptr noundef @.str.82, ptr noundef @.str.57, i32 noundef %34, i32 noundef 0)
  %36 = icmp ne i32 %35, 0
  br i1 %36, label %38, label %37

37:                                               ; preds = %32
  store ptr null, ptr %5, align 8, !tbaa !41
  br label %49

38:                                               ; preds = %32
  store ptr null, ptr %5, align 8, !tbaa !41
  %39 = call noalias ptr @fopen(ptr noundef @.str.79, ptr noundef @.str.84)
  store ptr %39, ptr %5, align 8, !tbaa !41
  %40 = call i32 @test_ptr(ptr noundef @.str, i32 noundef 471, ptr noundef @.str.83, ptr noundef %39)
  %41 = icmp ne i32 %40, 0
  br i1 %41, label %42, label %47

42:                                               ; preds = %38
  %43 = load ptr, ptr %5, align 8, !tbaa !41
  %44 = call ptr @ASN1_d2i_fp(ptr noundef null, ptr noundef @d2i_ECPKParameters, ptr noundef %43, ptr noundef null)
  store ptr %44, ptr %4, align 8, !tbaa !14
  %45 = call i32 @test_ptr(ptr noundef @.str, i32 noundef 472, ptr noundef @.str.85, ptr noundef %44)
  %46 = icmp ne i32 %45, 0
  br i1 %46, label %48, label %47

47:                                               ; preds = %42, %38
  br label %49

48:                                               ; preds = %42
  store i32 1, ptr %7, align 4, !tbaa !10
  br label %49

49:                                               ; preds = %48, %47, %37, %31, %18
  %50 = load ptr, ptr %5, align 8, !tbaa !41
  %51 = icmp ne ptr %50, null
  br i1 %51, label %52, label %55

52:                                               ; preds = %49
  %53 = load ptr, ptr %5, align 8, !tbaa !41
  %54 = call i32 @fclose(ptr noundef %53)
  br label %55

55:                                               ; preds = %52, %49
  %56 = load ptr, ptr %3, align 8, !tbaa !14
  call void @EC_GROUP_free(ptr noundef %56)
  %57 = load ptr, ptr %4, align 8, !tbaa !14
  call void @EC_GROUP_free(ptr noundef %57)
  %58 = load i32, ptr %7, align 4, !tbaa !10
  call void @llvm.lifetime.end.p0(i64 4, ptr %7) #4
  call void @llvm.lifetime.end.p0(i64 4, ptr %6) #4
  call void @llvm.lifetime.end.p0(i64 8, ptr %5) #4
  call void @llvm.lifetime.end.p0(i64 8, ptr %4) #4
  call void @llvm.lifetime.end.p0(i64 8, ptr %3) #4
  ret i32 %58
}