; Function Attrs: nounwind uwtable
define internal range(i32 0, 2) i32 @ecpkparams_i2d2i_test(i32 noundef %0) #0 {
  %2 = load ptr, ptr @curves, align 8, !tbaa !8
  %3 = sext i32 %0 to i64
  %4 = getelementptr inbounds %struct.EC_builtin_curve, ptr %2, i64 %3
  %5 = load i32, ptr %4, align 8, !tbaa !10
  %6 = tail call ptr @EC_GROUP_new_by_curve_name(i32 noundef %5) #4
  %7 = tail call i32 @test_ptr(ptr noundef nonnull @.str, i32 noundef 455, ptr noundef nonnull @.str.77, ptr noundef %6) #4
  %.not = icmp eq i32 %7, 0
  br i1 %.not, label %.thread, label %8

8:                                                ; preds = %1
  %9 = tail call noalias ptr @fopen(ptr noundef nonnull @.str.79, ptr noundef nonnull @.str.80)
  %10 = tail call i32 @test_ptr(ptr noundef nonnull @.str, i32 noundef 459, ptr noundef nonnull @.str.78, ptr noundef %9) #4
  %.not12 = icmp eq i32 %10, 0
  br i1 %.not12, label %25, label %11

11:                                               ; preds = %8
  %12 = tail call i32 @ASN1_i2d_fp(ptr noundef nonnull @i2d_ECPKParameters, ptr noundef %9, ptr noundef %6) #4
  %13 = icmp ne i32 %12, 0
  %14 = zext i1 %13 to i32
  %15 = tail call i32 @test_true(ptr noundef nonnull @.str, i32 noundef 460, ptr noundef nonnull @.str.81, i32 noundef %14) #4
  %.not13 = icmp eq i32 %15, 0
  br i1 %.not13, label %25, label %16

16:                                               ; preds = %11
  %17 = tail call i32 @fclose(ptr noundef %9)
  %18 = tail call i32 @test_int_eq(ptr noundef nonnull @.str, i32 noundef 464, ptr noundef nonnull @.str.82, ptr noundef nonnull @.str.57, i32 noundef %17, i32 noundef 0) #4
  %.not14 = icmp eq i32 %18, 0
  br i1 %.not14, label %.thread, label %19

19:                                               ; preds = %16
  %20 = tail call noalias ptr @fopen(ptr noundef nonnull @.str.79, ptr noundef nonnull @.str.84)
  %21 = tail call i32 @test_ptr(ptr noundef nonnull @.str, i32 noundef 471, ptr noundef nonnull @.str.83, ptr noundef %20) #4
  %.not15 = icmp eq i32 %21, 0
  br i1 %.not15, label %25, label %22

22:                                               ; preds = %19
  %23 = tail call ptr @ASN1_d2i_fp(ptr noundef null, ptr noundef nonnull @d2i_ECPKParameters, ptr noundef %20, ptr noundef null) #4
  %24 = tail call i32 @test_ptr(ptr noundef nonnull @.str, i32 noundef 472, ptr noundef nonnull @.str.85, ptr noundef %23) #4
  %.not16 = icmp ne i32 %24, 0
  %spec.select = zext i1 %.not16 to i32
  br label %25

25:                                               ; preds = %22, %19, %8, %11
  %.011 = phi ptr [ null, %19 ], [ null, %11 ], [ null, %8 ], [ %23, %22 ]
  %.010 = phi ptr [ %20, %19 ], [ %9, %11 ], [ %9, %8 ], [ %20, %22 ]
  %.0 = phi i32 [ 0, %19 ], [ 0, %11 ], [ 0, %8 ], [ %spec.select, %22 ]
  %.not17 = icmp eq ptr %.010, null
  br i1 %.not17, label %.thread, label %26

26:                                               ; preds = %25
  %27 = tail call i32 @fclose(ptr noundef nonnull %.010)
  br label %.thread

.thread:                                          ; preds = %16, %1, %26, %25
  %.023 = phi i32 [ %.0, %26 ], [ %.0, %25 ], [ 0, %1 ], [ 0, %16 ]
  %.01122 = phi ptr [ %.011, %26 ], [ %.011, %25 ], [ null, %1 ], [ null, %16 ]
  tail call void @EC_GROUP_free(ptr noundef %6) #4
  tail call void @EC_GROUP_free(ptr noundef %.01122) #4
  ret i32 %.023
}